target datalayout = "e-m:e-p270:32:32-p271:32:32-p272:64:64-i64:64-i128:128-f80:128-n8:16:32:64-S128"
target triple = "x86_64-pc-linux-gnu"

%struct.Lpk_Fun_t_ = type { ptr, i32, i32, [32 x i32], i32, [16 x i32], [16 x i8], [0 x i32] }
%struct.Vec_Ptr_t_ = type { i32, i32, ptr }

; Function Attrs: inlinehint nounwind uwtable
define internal void @Vec_PtrWriteEntry(ptr noundef %0, i32 noundef %1, ptr noundef %2) #2 {
  %4 = alloca ptr, align 8
  %5 = alloca i32, align 4
  %6 = alloca ptr, align 8
  store ptr %0, ptr %4, align 8, !tbaa !10
  store i32 %1, ptr %5, align 4, !tbaa !26
  store ptr %2, ptr %6, align 8, !tbaa !47
  %7 = load ptr, ptr %6, align 8, !tbaa !47
  %8 = load ptr, ptr %4, align 8, !tbaa !10
  %9 = getelementptr inbounds nuw %struct.Vec_Ptr_t_, ptr %8, i32 0, i32 2
  %10 = load ptr, ptr %9, align 8, !tbaa !45
  %11 = load i32, ptr %5, align 4, !tbaa !26
  %12 = sext i32 %11 to i64
  %13 = getelementptr inbounds ptr, ptr %10, i64 %12
  store ptr %7, ptr %13, align 8, !tbaa !47
  ret void
}

; Function Attrs: inlinehint nounwind uwtable
define internal ptr @Abc_ObjNot(ptr noundef %0) #2 {
  %2 = alloca ptr, align 8
  store ptr %0, ptr %2, align 8, !tbaa !25
  %3 = load ptr, ptr %2, align 8, !tbaa !25
  %4 = ptrtoint ptr %3 to i64
  %5 = xor i64 %4, 1
  %6 = inttoptr i64 %5 to ptr
  ret ptr %6
}

; Function Attrs: inlinehint nounwind uwtable
define internal i32 @Abc_ObjIsComplement(ptr noundef %0) #2 {
  %2 = alloca ptr, align 8
  store ptr %0, ptr %2, align 8, !tbaa !25
  %3 = load ptr, ptr %2, align 8, !tbaa !25
  %4 = ptrtoint ptr %3 to i64
  %5 = and i64 %4, 1
  %6 = trunc i64 %5 to i32
  ret i32 %6
}

; Function Attrs: inlinehint nounwind uwtable
define internal ptr @Vec_PtrEntry(ptr noundef %0, i32 noundef %1) #2 {
  %3 = alloca ptr, align 8
  %4 = alloca i32, align 4
  store ptr %0, ptr %3, align 8, !tbaa !10
  store i32 %1, ptr %4, align 4, !tbaa !26
  %5 = load ptr, ptr %3, align 8, !tbaa !10
  %6 = getelementptr inbounds nuw %struct.Vec_Ptr_t_, ptr %5, i32 0, i32 2
  %7 = load ptr, ptr %6, align 8, !tbaa !45
  %8 = load i32, ptr %4, align 4, !tbaa !26
  %9 = sext i32 %8 to i64
  %10 = getelementptr inbounds ptr, ptr %7, i64 %9
  %11 = load ptr, ptr %10, align 8, !tbaa !47
  ret ptr %11
}

; Function Attrs: nounwind uwtable
define ptr @Lpk_Implement_rec(ptr noundef %0, ptr noundef %1, ptr noundef %2, ptr noundef %3) #0 {
  %5 = alloca ptr, align 8
  %6 = alloca ptr, align 8
  %7 = alloca ptr, align 8
  %8 = alloca ptr, align 8
  %9 = alloca ptr, align 8
  %10 = alloca ptr, align 8
  %11 = alloca i32, align 4
  store ptr %0, ptr %5, align 8, !tbaa !3
  store ptr %1, ptr %6, align 8, !tbaa !8
  store ptr %2, ptr %7, align 8, !tbaa !10
  store ptr %3, ptr %8, align 8, !tbaa !12
  call void @llvm.lifetime.start.p0(i64 8, ptr %9) #6
  call void @llvm.lifetime.start.p0(i64 8, ptr %10) #6
  call void @llvm.lifetime.start.p0(i64 4, ptr %11) #6
  store i32 0, ptr %11, align 4, !tbaa !26
  br label %12

12:                                               ; preds = %49, %4
  %13 = load i32, ptr %11, align 4, !tbaa !26
  %14 = load ptr, ptr %8, align 8, !tbaa !12
  %15 = getelementptr inbounds nuw %struct.Lpk_Fun_t_, ptr %14, i32 0, i32 1
  %16 = load i32, ptr %15, align 8
  %17 = lshr i32 %16, 7
  %18 = and i32 %17, 31
  %19 = icmp slt i32 %13, %18
  br i1 %19, label %20, label %52

20:                                               ; preds = %12
  %21 = load ptr, ptr %7, align 8, !tbaa !10
  %22 = load ptr, ptr %8, align 8, !tbaa !12
  %23 = getelementptr inbounds nuw %struct.Lpk_Fun_t_, ptr %22, i32 0, i32 6
  %24 = load i32, ptr %11, align 4, !tbaa !26
  %25 = sext i32 %24 to i64
  %26 = getelementptr inbounds [16 x i8], ptr %23, i64 0, i64 %25
  %27 = load i8, ptr %26, align 1, !tbaa !27
  %28 = sext i8 %27 to i32
  %29 = call ptr @Vec_PtrEntry(ptr noundef %21, i32 noundef %28)
  store ptr %29, ptr %9, align 8, !tbaa !25
  %30 = load ptr, ptr %9, align 8, !tbaa !25
  %31 = call i32 @Abc_ObjIsComplement(ptr noundef %30)
  %32 = icmp ne i32 %31, 0
  br i1 %32, label %39, label %33

33:                                               ; preds = %20
  %34 = load ptr, ptr %5, align 8, !tbaa !3
  %35 = load ptr, ptr %6, align 8, !tbaa !8
  %36 = load ptr, ptr %7, align 8, !tbaa !10
  %37 = load ptr, ptr %9, align 8, !tbaa !25
  %38 = call ptr @Lpk_Implement_rec(ptr noundef %34, ptr noundef %35, ptr noundef %36, ptr noundef %37)
  br label %39

39:                                               ; preds = %33, %20
  %40 = load ptr, ptr %7, align 8, !tbaa !10
  %41 = load ptr, ptr %8, align 8, !tbaa !12
  %42 = getelementptr inbounds nuw %struct.Lpk_Fun_t_, ptr %41, i32 0, i32 6
  %43 = load i32, ptr %11, align 4, !tbaa !26
  %44 = sext i32 %43 to i64
  %45 = getelementptr inbounds [16 x i8], ptr %42, i64 0, i64 %44
  %46 = load i8, ptr %45, align 1, !tbaa !27
  %47 = sext i8 %46 to i32
  %48 = call ptr @Vec_PtrEntry(ptr noundef %40, i32 noundef %47)
  store ptr %48, ptr %9, align 8, !tbaa !25
  br label %49

49:                                               ; preds = %39
  %50 = load i32, ptr %11, align 4, !tbaa !26
  %51 = add nsw i32 %50, 1
  store i32 %51, ptr %11, align 4, !tbaa !26
  br label %12, !llvm.loop !57

52:                                               ; preds = %12
  %53 = load ptr, ptr %5, align 8, !tbaa !3
  %54 = load ptr, ptr %6, align 8, !tbaa !8
  %55 = load ptr, ptr %7, align 8, !tbaa !10
  %56 = load ptr, ptr %8, align 8, !tbaa !12
  %57 = call ptr @Lpk_ImplementFun(ptr noundef %53, ptr noundef %54, ptr noundef %55, ptr noundef %56)
  store ptr %57, ptr %10, align 8, !tbaa !25
  %58 = load ptr, ptr %7, align 8, !tbaa !10
  %59 = load ptr, ptr %8, align 8, !tbaa !12
  %60 = getelementptr inbounds nuw %struct.Lpk_Fun_t_, ptr %59, i32 0, i32 1
  %61 = load i32, ptr %60, align 8
  %62 = and i32 %61, 127
  %63 = load ptr, ptr %10, align 8, !tbaa !25
  %64 = call ptr @Abc_ObjNot(ptr noundef %63)
  call void @Vec_PtrWriteEntry(ptr noundef %58, i32 noundef %62, ptr noundef %64)
  %65 = load ptr, ptr %8, align 8, !tbaa !12
  call void @Lpk_FunFree(ptr noundef %65)
  %66 = load ptr, ptr %10, align 8, !tbaa !25
  call void @llvm.lifetime.end.p0(i64 4, ptr %11) #6
  call void @llvm.lifetime.end.p0(i64 8, ptr %10) #6
  call void @llvm.lifetime.end.p0(i64 8, ptr %9) #6
  ret ptr %66
}