; Function Attrs: nounwind uwtable
define ptr @Lpk_Implement_rec(ptr noundef captures(none) %0, ptr noundef %1, ptr noundef readonly captures(none) %2, ptr noundef %3) local_unnamed_addr #0 {
  %5 = getelementptr inbounds nuw i8, ptr %3, i64 8
  %6 = load i32, ptr %5, align 8
  %7 = and i32 %6, 3968
  %.not25 = icmp eq i32 %7, 0
  br i1 %.not25, label %._crit_edge, label %.lr.ph

.lr.ph:                                           ; preds = %4
  %8 = getelementptr inbounds nuw i8, ptr %3, i64 212
  %9 = getelementptr i8, ptr %2, i64 8
  br label %10

10:                                               ; preds = %.lr.ph, %21
  %11 = phi i32 [ %6, %.lr.ph ], [ %22, %21 ]
  %indvars.iv = phi i64 [ 0, %.lr.ph ], [ %indvars.iv.next, %21 ]
  %12 = getelementptr inbounds nuw [16 x i8], ptr %8, i64 0, i64 %indvars.iv
  %13 = load i8, ptr %12, align 1, !tbaa !19
  %.val22 = load ptr, ptr %9, align 8, !tbaa !20
  %14 = sext i8 %13 to i64
  %15 = getelementptr inbounds ptr, ptr %.val22, i64 %14
  %16 = load ptr, ptr %15, align 8, !tbaa !22
  %17 = ptrtoint ptr %16 to i64
  %18 = and i64 %17, 1
  %.not = icmp eq i64 %18, 0
  br i1 %.not, label %19, label %21

19:                                               ; preds = %10
  %20 = tail call ptr @Lpk_Implement_rec(ptr noundef %0, ptr noundef %1, ptr noundef nonnull %2, ptr noundef %16)
  %.pre = load i32, ptr %5, align 8
  br label %21

21:                                               ; preds = %19, %10
  %22 = phi i32 [ %.pre, %19 ], [ %11, %10 ]
  %indvars.iv.next = add nuw nsw i64 %indvars.iv, 1
  %23 = lshr i32 %22, 7
  %24 = and i32 %23, 31
  %25 = zext nneg i32 %24 to i64
  %26 = icmp samesign ult i64 %indvars.iv.next, %25
  br i1 %26, label %10, label %._crit_edge, !llvm.loop !46

._crit_edge:                                      ; preds = %21, %4
  %27 = tail call ptr @Lpk_ImplementFun(ptr noundef %0, ptr noundef %1, ptr noundef %2, ptr noundef nonnull %3)
  %28 = load i32, ptr %5, align 8
  %29 = and i32 %28, 127
  %30 = ptrtoint ptr %27 to i64
  %31 = xor i64 %30, 1
  %32 = inttoptr i64 %31 to ptr
  %33 = getelementptr i8, ptr %2, i64 8
  %.val23 = load ptr, ptr %33, align 8, !tbaa !20
  %34 = zext nneg i32 %29 to i64
  %35 = getelementptr inbounds nuw ptr, ptr %.val23, i64 %34
  store ptr %32, ptr %35, align 8, !tbaa !22
  tail call void @Lpk_FunFree(ptr noundef nonnull %3) #6
  ret ptr %27
}